; Function Attrs: uwtable
define noundef zeroext i1 @_ZThn696_N5sim_t9mmio_loadEmmPh(ptr noundef %0, i64 noundef %1, i64 noundef %2, ptr noundef %3) unnamed_addr #14 align 2 {
  %5 = add i64 %2, %1
  %6 = icmp uge i64 %5, %1
  %7 = add i64 %5, -1
  %8 = icmp ult i64 %7, 72057594037927936
  %or.cond.i = and i1 %6, %8
  br i1 %or.cond.i, label %9, label %_ZN5sim_t9mmio_loadEmmPh.exit

9:                                                ; preds = %4
  %10 = getelementptr inbounds i8, ptr %0, i64 384
  %11 = tail call noundef zeroext i1 @_ZN5bus_t4loadEmmPh(ptr noundef nonnull align 8 dereferenceable(56) %10, i64 noundef %1, i64 noundef %2, ptr noundef %3)
  br label %_ZN5sim_t9mmio_loadEmmPh.exit

_ZN5sim_t9mmio_loadEmmPh.exit:                    ; preds = %4, %9
  %.0.i = phi i1 [ %11, %9 ], [ false, %4 ]
  ret i1 %.0.i
}